target datalayout = "e-m:e-p270:32:32-p271:32:32-p272:64:64-i64:64-i128:128-f80:128-n8:16:32:64-S128"
target triple = "x86_64-pc-linux-gnu"

@.str.28 = private unnamed_addr constant [34 x i8] c"../openssl/test/evp_extra_test2.c\00", align 1
@.str.116 = private unnamed_addr constant [35 x i8] c"p = OSSL_PARAM_locate(params, key)\00", align 1
@.str.119 = private unnamed_addr constant [9 x i8] c"expected\00", align 1
@.str.121 = private unnamed_addr constant [28 x i8] c"OSSL_PARAM_get_int(p, &val)\00", align 1
@.str.122 = private unnamed_addr constant [4 x i8] c"val\00", align 1

; Function Attrs: nounwind uwtable
define internal i32 @do_check_int(ptr noundef %0, ptr noundef %1, i32 noundef %2) #0 {
  %4 = alloca ptr, align 8
  %5 = alloca ptr, align 8
  %6 = alloca i32, align 4
  %7 = alloca ptr, align 8
  %8 = alloca i32, align 4
  store ptr %0, ptr %4, align 8, !tbaa !35
  store ptr %1, ptr %5, align 8, !tbaa !21
  store i32 %2, ptr %6, align 4, !tbaa !11
  call void @llvm.lifetime.start.p0(i64 8, ptr %7) #7
  call void @llvm.lifetime.start.p0(i64 4, ptr %8) #7
  store i32 0, ptr %8, align 4, !tbaa !11
  %9 = load ptr, ptr %4, align 8, !tbaa !35
  %10 = load ptr, ptr %5, align 8, !tbaa !21
  %11 = call ptr @OSSL_PARAM_locate(ptr noundef %9, ptr noundef %10)
  store ptr %11, ptr %7, align 8, !tbaa !35
  %12 = call i32 @test_ptr(ptr noundef @.str.28, i32 noundef 1072, ptr noundef @.str.116, ptr noundef %11)
  %13 = icmp ne i32 %12, 0
  br i1 %13, label %14, label %26

14:                                               ; preds = %3
  %15 = load ptr, ptr %7, align 8, !tbaa !35
  %16 = call i32 @OSSL_PARAM_get_int(ptr noundef %15, ptr noundef %8)
  %17 = icmp ne i32 %16, 0
  %18 = zext i1 %17 to i32
  %19 = call i32 @test_true(ptr noundef @.str.28, i32 noundef 1073, ptr noundef @.str.121, i32 noundef %18)
  %20 = icmp ne i32 %19, 0
  br i1 %20, label %21, label %26

21:                                               ; preds = %14
  %22 = load i32, ptr %8, align 4, !tbaa !11
  %23 = load i32, ptr %6, align 4, !tbaa !11
  %24 = call i32 @test_int_eq(ptr noundef @.str.28, i32 noundef 1074, ptr noundef @.str.122, ptr noundef @.str.119, i32 noundef %22, i32 noundef %23)
  %25 = icmp ne i32 %24, 0
  br label %26

26:                                               ; preds = %21, %14, %3
  %27 = phi i1 [ false, %14 ], [ false, %3 ], [ %25, %21 ]
  %28 = zext i1 %27 to i32
  call void @llvm.lifetime.end.p0(i64 4, ptr %8) #7
  call void @llvm.lifetime.end.p0(i64 8, ptr %7) #7
  ret i32 %28
}