; Function Attrs: nounwind uwtable
define internal fastcc range(i32 0, 2) i32 @do_check_int(ptr noundef %0, ptr noundef %1, i32 noundef range(i32 -1, 2) %2) unnamed_addr #0 {
  %4 = alloca i32, align 4
  call void @llvm.lifetime.start.p0(i64 4, ptr nonnull %4) #7
  store i32 0, ptr %4, align 4, !tbaa !22
  %5 = tail call ptr @OSSL_PARAM_locate(ptr noundef %0, ptr noundef %1) #7
  %6 = tail call i32 @test_ptr(ptr noundef nonnull @.str.28, i32 noundef 1072, ptr noundef nonnull @.str.116, ptr noundef %5) #7
  %.not = icmp eq i32 %6, 0
  br i1 %.not, label %17, label %7

7:                                                ; preds = %3
  %8 = call i32 @OSSL_PARAM_get_int(ptr noundef %5, ptr noundef nonnull %4) #7
  %9 = icmp ne i32 %8, 0
  %10 = zext i1 %9 to i32
  %11 = call i32 @test_true(ptr noundef nonnull @.str.28, i32 noundef 1073, ptr noundef nonnull @.str.121, i32 noundef %10) #7
  %.not3 = icmp eq i32 %11, 0
  br i1 %.not3, label %17, label %12

12:                                               ; preds = %7
  %13 = load i32, ptr %4, align 4, !tbaa !22
  %14 = call i32 @test_int_eq(ptr noundef nonnull @.str.28, i32 noundef 1074, ptr noundef nonnull @.str.122, ptr noundef nonnull @.str.119, i32 noundef %13, i32 noundef %2) #7
  %15 = icmp ne i32 %14, 0
  %16 = zext i1 %15 to i32
  br label %17

17:                                               ; preds = %12, %7, %3
  %18 = phi i32 [ 0, %7 ], [ 0, %3 ], [ %16, %12 ]
  call void @llvm.lifetime.end.p0(i64 4, ptr nonnull %4) #7
  ret i32 %18
}